target datalayout = "e-m:e-p270:32:32-p271:32:32-p272:64:64-i64:64-i128:128-f80:128-n8:16:32:64-S128"
target triple = "x86_64-pc-linux-gnu"

%struct._zval_struct = type { %union._zend_value, %union.anon, %union.anon.2 }
%union._zend_value = type { i64 }
%union.anon = type { i32 }
%union.anon.2 = type { i32 }
%struct._zend_execute_data = type { ptr, ptr, ptr, ptr, %struct._zval_struct, ptr, ptr, ptr, ptr }

; Function Attrs: nounwind uwtable
define hidden void @zif_is_bool(ptr noundef %0, ptr noundef %1) #0 {
  %3 = alloca ptr, align 8
  %4 = alloca ptr, align 8
  %5 = alloca ptr, align 8
  %6 = alloca ptr, align 8
  %7 = alloca ptr, align 8
  %8 = alloca i8, align 1
  %9 = alloca ptr, align 8
  %10 = alloca ptr, align 8
  %11 = alloca ptr, align 8
  %12 = alloca i32, align 4
  %13 = alloca i32, align 4
  %14 = alloca i32, align 4
  %15 = alloca i32, align 4
  %16 = alloca i32, align 4
  %17 = alloca ptr, align 8
  %18 = alloca ptr, align 8
  %19 = alloca i32, align 4
  %20 = alloca ptr, align 8
  %21 = alloca i8, align 1
  %22 = alloca i8, align 1
  %23 = alloca i32, align 4
  store ptr %0, ptr %9, align 8
  store ptr %1, ptr %10, align 8
  br label %24

24:                                               ; preds = %2
  store i32 0, ptr %12, align 4
  store i32 1, ptr %13, align 4
  store i32 1, ptr %14, align 4
  %25 = load ptr, ptr %9, align 8
  %26 = getelementptr inbounds %struct._zend_execute_data, ptr %25, i32 0, i32 4
  %27 = getelementptr inbounds %struct._zval_struct, ptr %26, i32 0, i32 2
  %28 = load i32, ptr %27, align 4
  store i32 %28, ptr %15, align 4
  store i32 0, ptr %16, align 4
  store ptr null, ptr %18, align 8
  store i32 0, ptr %19, align 4
  store ptr null, ptr %20, align 8
  store i8 0, ptr %21, align 1
  store i8 0, ptr %22, align 1
  store i32 0, ptr %23, align 4
  br label %29

29:                                               ; preds = %24
  %30 = load i32, ptr %15, align 4
  %31 = load i32, ptr %13, align 4
  %32 = icmp ult i32 %30, %31
  %33 = xor i1 %32, true
  %34 = xor i1 %33, true
  %35 = zext i1 %34 to i32
  %36 = sext i32 %35 to i64
  %37 = icmp ne i64 %36, 0
  br i1 %37, label %47, label %38

38:                                               ; preds = %29
  %39 = load i32, ptr %15, align 4
  %40 = load i32, ptr %14, align 4
  %41 = icmp ugt i32 %39, %40
  %42 = xor i1 %41, true
  %43 = xor i1 %42, true
  %44 = zext i1 %43 to i32
  %45 = sext i32 %44 to i64
  %46 = icmp ne i64 %45, 0
  br i1 %46, label %47, label %50

47:                                               ; preds = %38, %29
  %48 = load i32, ptr %13, align 4
  %49 = load i32, ptr %14, align 4
  call void @zend_wrong_parameters_count_error(i32 noundef %48, i32 noundef %49)
  store i32 1, ptr %23, align 4
  br label %116

50:                                               ; preds = %38
  %51 = load ptr, ptr %9, align 8
  %52 = getelementptr inbounds %struct._zval_struct, ptr %51, i64 4
  store ptr %52, ptr %17, align 8
  %53 = load i32, ptr %16, align 4
  %54 = add i32 %53, 1
  store i32 %54, ptr %16, align 4
  %55 = load i32, ptr %16, align 4
  %56 = load i32, ptr %13, align 4
  %57 = icmp ule i32 %55, %56
  br i1 %57, label %63, label %58

58:                                               ; preds = %50
  %59 = load i8, ptr %22, align 1
  %60 = trunc i8 %59 to i1
  %61 = zext i1 %60 to i32
  %62 = icmp eq i32 %61, 1
  br label %63

63:                                               ; preds = %58, %50
  %64 = phi i1 [ true, %50 ], [ %62, %58 ]
  call void @llvm.assume(i1 %64)
  %65 = load i32, ptr %16, align 4
  %66 = load i32, ptr %13, align 4
  %67 = icmp ugt i32 %65, %66
  br i1 %67, label %73, label %68

68:                                               ; preds = %63
  %69 = load i8, ptr %22, align 1
  %70 = trunc i8 %69 to i1
  %71 = zext i1 %70 to i32
  %72 = icmp eq i32 %71, 0
  br label %73

73:                                               ; preds = %68, %63
  %74 = phi i1 [ true, %63 ], [ %72, %68 ]
  call void @llvm.assume(i1 %74)
  %75 = load i8, ptr %22, align 1
  %76 = trunc i8 %75 to i1
  br i1 %76, label %77, label %88

77:                                               ; preds = %73
  %78 = load i32, ptr %16, align 4
  %79 = load i32, ptr %15, align 4
  %80 = icmp ugt i32 %78, %79
  %81 = xor i1 %80, true
  %82 = xor i1 %81, true
  %83 = zext i1 %82 to i32
  %84 = sext i32 %83 to i64
  %85 = icmp ne i64 %84, 0
  br i1 %85, label %86, label %87

86:                                               ; preds = %77
  br label %116

87:                                               ; preds = %77
  br label %88

88:                                               ; preds = %87, %73
  %89 = load ptr, ptr %17, align 8
  %90 = getelementptr inbounds %struct._zval_struct, ptr %89, i32 1
  store ptr %90, ptr %17, align 8
  %91 = load ptr, ptr %17, align 8
  store ptr %91, ptr %18, align 8
  %92 = load ptr, ptr %18, align 8
  store ptr %92, ptr %6, align 8
  store ptr %11, ptr %7, align 8
  store i8 0, ptr %8, align 1
  %93 = load i8, ptr %8, align 1
  %94 = trunc i8 %93 to i1
  br i1 %94, label %95, label %103

95:                                               ; preds = %88
  %96 = load ptr, ptr %6, align 8
  store ptr %96, ptr %5, align 8
  %97 = load ptr, ptr %5, align 8
  %98 = getelementptr inbounds %struct._zval_struct, ptr %97, i32 0, i32 1
  %99 = load i8, ptr %98, align 8
  %100 = zext i8 %99 to i32
  %101 = icmp eq i32 %100, 1
  br i1 %101, label %102, label %103

102:                                              ; preds = %95
  br label %105

103:                                              ; preds = %95, %88
  %104 = load ptr, ptr %6, align 8
  br label %105

105:                                              ; preds = %103, %102
  %106 = phi ptr [ null, %102 ], [ %104, %103 ]
  %107 = load ptr, ptr %7, align 8
  store ptr %106, ptr %107, align 8
  %108 = load i32, ptr %16, align 4
  %109 = load i32, ptr %14, align 4
  %110 = icmp eq i32 %108, %109
  br i1 %110, label %114, label %111

111:                                              ; preds = %105
  %112 = load i32, ptr %14, align 4
  %113 = icmp eq i32 %112, -1
  br label %114

114:                                              ; preds = %111, %105
  %115 = phi i1 [ true, %105 ], [ %113, %111 ]
  call void @llvm.assume(i1 %115)
  br label %116

116:                                              ; preds = %114, %86, %47
  %117 = load i32, ptr %23, align 4
  %118 = icmp ne i32 %117, 0
  %119 = xor i1 %118, true
  %120 = xor i1 %119, true
  %121 = zext i1 %120 to i32
  %122 = sext i32 %121 to i64
  %123 = icmp ne i64 %122, 0
  br i1 %123, label %124, label %130

124:                                              ; preds = %116
  %125 = load i32, ptr %23, align 4
  %126 = load i32, ptr %16, align 4
  %127 = load ptr, ptr %20, align 8
  %128 = load i32, ptr %19, align 4
  %129 = load ptr, ptr %18, align 8
  call void @zend_wrong_parameter_error(i32 noundef %125, i32 noundef %126, ptr noundef %127, i32 noundef %128, ptr noundef %129)
  br label %153

130:                                              ; preds = %116
  br label %131

131:                                              ; preds = %130
  br label %132

132:                                              ; preds = %131
  br label %133

133:                                              ; preds = %132
  %134 = load ptr, ptr %11, align 8
  store ptr %134, ptr %3, align 8
  %135 = load ptr, ptr %3, align 8
  %136 = getelementptr inbounds %struct._zval_struct, ptr %135, i32 0, i32 1
  %137 = load i8, ptr %136, align 8
  %138 = zext i8 %137 to i32
  %139 = icmp eq i32 %138, 2
  br i1 %139, label %147, label %140

140:                                              ; preds = %133
  %141 = load ptr, ptr %11, align 8
  store ptr %141, ptr %4, align 8
  %142 = load ptr, ptr %4, align 8
  %143 = getelementptr inbounds %struct._zval_struct, ptr %142, i32 0, i32 1
  %144 = load i8, ptr %143, align 8
  %145 = zext i8 %144 to i32
  %146 = icmp eq i32 %145, 3
  br label %147

147:                                              ; preds = %140, %133
  %148 = phi i1 [ true, %133 ], [ %146, %140 ]
  %149 = select i1 %148, i32 3, i32 2
  %150 = load ptr, ptr %10, align 8
  %151 = getelementptr inbounds %struct._zval_struct, ptr %150, i32 0, i32 1
  store i32 %149, ptr %151, align 8
  br label %152

152:                                              ; preds = %147
  br label %153

153:                                              ; preds = %152, %124
  ret void
}