; Function Attrs: nounwind uwtable
define hidden void @zif_is_bool(ptr nocapture noundef readonly %0, ptr nocapture noundef writeonly %1) local_unnamed_addr #0 {
  %3 = getelementptr inbounds i8, ptr %0, i64 44
  %4 = load i32, ptr %3, align 4
  %cond = icmp eq i32 %4, 1
  br i1 %cond, label %6, label %5

5:                                                ; preds = %2
  tail call void @zend_wrong_parameters_count_error(i32 noundef 1, i32 noundef 1) #8
  tail call void @zend_wrong_parameter_error(i32 noundef 1, i32 noundef 0, ptr noundef null, i32 noundef 0, ptr noundef null) #8
  br label %13

6:                                                ; preds = %2
  %7 = getelementptr inbounds i8, ptr %0, i64 88
  %8 = load i8, ptr %7, align 8
  %9 = and i8 %8, -2
  %10 = icmp eq i8 %9, 2
  %11 = select i1 %10, i32 3, i32 2
  %12 = getelementptr inbounds i8, ptr %1, i64 8
  store i32 %11, ptr %12, align 8
  br label %13

13:                                               ; preds = %6, %5
  ret void
}